; Function Attrs: nounwind uwtable
define internal void @_ZThn40_N12_GLOBAL__N_16uvimpl4Work16DoThreadPoolWorkEv(ptr nocapture noundef readonly %this) unnamed_addr #15 align 2 {
entry:
  %_execute.i = getelementptr inbounds i8, ptr %this, i64 168
  %0 = load ptr, ptr %_execute.i, align 8
  %_env.i = getelementptr inbounds i8, ptr %this, i64 152
  %1 = load ptr, ptr %_env.i, align 8
  %_data.i = getelementptr inbounds i8, ptr %this, i64 160
  %2 = load ptr, ptr %_data.i, align 8
  tail call void %0(ptr noundef %1, ptr noundef %2) #21
  ret void
}